; Function Attrs: mustprogress nounwind uwtable
define dso_local void @_ZN4llvm15ValueProfRecord13deserializeToERNS_15InstrProfRecordEPNS_15InstrProfSymtabE(ptr noundef nonnull align 4 dereferenceable(12) %0, ptr noundef nonnull align 8 dereferenceable(56) %1, ptr noundef %2) local_unnamed_addr #0 align 2 {
  %4 = load i32, ptr %0, align 4
  %5 = getelementptr inbounds nuw i8, ptr %0, i64 4
  %6 = load i32, ptr %5, align 4
  tail call void @_ZN4llvm15InstrProfRecord12reserveSitesEjj(ptr noundef nonnull align 8 dereferenceable(56) %1, i32 noundef %4, i32 noundef %6)
  %7 = load i32, ptr %5, align 4
  %.not = icmp eq i32 %7, 0
  br i1 %.not, label %._crit_edge, label %.lr.ph

.lr.ph:                                           ; preds = %3
  %8 = add i32 %7, 15
  %9 = and i32 %8, -8
  %10 = zext i32 %9 to i64
  %11 = getelementptr inbounds nuw i8, ptr %0, i64 %10
  %12 = getelementptr inbounds nuw i8, ptr %0, i64 8
  br label %13

13:                                               ; preds = %.lr.ph, %13
  %.013 = phi ptr [ %11, %.lr.ph ], [ %18, %13 ]
  %.01112 = phi i64 [ 0, %.lr.ph ], [ %19, %13 ]
  %14 = getelementptr inbounds nuw [1 x i8], ptr %12, i64 0, i64 %.01112
  %15 = load i8, ptr %14, align 1
  %16 = zext i8 %15 to i64
  %17 = load i32, ptr %0, align 4
  tail call void @_ZN4llvm15InstrProfRecord12addValueDataEjjNS_8ArrayRefI18InstrProfValueDataEEPNS_15InstrProfSymtabE(ptr noundef nonnull align 8 dereferenceable(56) %1, i32 noundef %17, i32 poison, ptr %.013, i64 %16, ptr noundef %2)
  %18 = getelementptr inbounds nuw %struct.InstrProfValueData, ptr %.013, i64 %16
  %19 = add nuw nsw i64 %.01112, 1
  %20 = load i32, ptr %5, align 4
  %21 = zext i32 %20 to i64
  %22 = icmp samesign ult i64 %19, %21
  br i1 %22, label %13, label %._crit_edge, !llvm.loop !148

._crit_edge:                                      ; preds = %13, %3
  ret void
}